target datalayout = "e-m:e-p270:32:32-p271:32:32-p272:64:64-i64:64-i128:128-f80:128-n8:16:32:64-S128"
target triple = "x86_64-pc-linux-gnu"

%class.QWidget = type { %class.QObject, %class.QPaintDevice, ptr }
%class.QObject = type { ptr, %class.QScopedPointer }
%class.QScopedPointer = type { ptr }
%class.QPaintDevice = type { ptr, i16, ptr }
%class.MLRenderingFloatSlider = type <{ %class.MLFloatSlider, ptr, i32, [4 x i8] }>
%class.MLFloatSlider = type { %class.QSlider }
%class.QSlider = type { %class.QAbstractSlider }
%class.QAbstractSlider = type { %class.QWidget }
%class.MLRenderingFloatAction = type <{ %class.MLRenderingAction, float, [4 x i8] }>
%class.MLRenderingAction = type { %class.QAction }
%class.QAction = type { %class.QObject }

; Function Attrs: mustprogress nounwind uwtable
define linkonce_odr void @_ZN22MLRenderingFloatAction8setValueEf(ptr noundef nonnull align 8 dereferenceable(20) %0, float noundef %1) #4 comdat align 2 {
  %3 = alloca ptr, align 8
  %4 = alloca float, align 4
  store ptr %0, ptr %3, align 8
  store float %1, ptr %4, align 4
  %5 = load ptr, ptr %3, align 8
  %6 = load float, ptr %4, align 4
  %7 = getelementptr inbounds %class.MLRenderingFloatAction, ptr %5, i32 0, i32 1
  store float %6, ptr %7, align 8
  ret void
}

; Function Attrs: mustprogress uwtable
define void @_ZN22MLRenderingFloatSlider27setAccordingToRenderingDataERK15MLRenderingData(ptr noundef nonnull align 8 dereferenceable(60) %0, ptr noundef nonnull align 8 dereferenceable(40) %1) #5 align 2 {
  %3 = alloca ptr, align 8
  %4 = alloca ptr, align 8
  %5 = alloca float, align 4
  store ptr %0, ptr %3, align 8
  store ptr %1, ptr %4, align 8
  %6 = load ptr, ptr %3, align 8
  %7 = getelementptr inbounds %class.MLRenderingFloatSlider, ptr %6, i32 0, i32 1
  %8 = load ptr, ptr %7, align 8
  %9 = icmp ne ptr %8, null
  br i1 %9, label %10, label %22

10:                                               ; preds = %2
  %11 = getelementptr inbounds %class.MLRenderingFloatSlider, ptr %6, i32 0, i32 1
  %12 = load ptr, ptr %11, align 8
  %13 = load ptr, ptr %4, align 8
  %14 = load ptr, ptr %12, align 8
  %15 = getelementptr inbounds ptr, ptr %14, i64 17
  %16 = load ptr, ptr %15, align 8
  %17 = call noundef float %16(ptr noundef nonnull align 8 dereferenceable(20) %12, ptr noundef nonnull align 8 dereferenceable(40) %13)
  store float %17, ptr %5, align 4
  %18 = load float, ptr %5, align 4
  call void @_ZN13MLFloatSlider8setValueEf(ptr noundef nonnull align 8 dereferenceable(48) %6, float noundef %18)
  %19 = getelementptr inbounds %class.MLRenderingFloatSlider, ptr %6, i32 0, i32 1
  %20 = load ptr, ptr %19, align 8
  %21 = load float, ptr %5, align 4
  call void @_ZN22MLRenderingFloatAction8setValueEf(ptr noundef nonnull align 8 dereferenceable(20) %20, float noundef %21)
  br label %22

22:                                               ; preds = %10, %2
  ret void
}