; Function Attrs: mustprogress uwtable
define void @_ZN22MLRenderingFloatSlider27setAccordingToRenderingDataERK15MLRenderingData(ptr noundef nonnull align 8 dereferenceable(60) %0, ptr noundef nonnull align 8 dereferenceable(40) %1) local_unnamed_addr #3 align 2 {
  %3 = getelementptr inbounds i8, ptr %0, i64 48
  %4 = load ptr, ptr %3, align 8
  %.not = icmp eq ptr %4, null
  br i1 %.not, label %12, label %5

5:                                                ; preds = %2
  %6 = load ptr, ptr %4, align 8
  %7 = getelementptr inbounds i8, ptr %6, i64 136
  %8 = load ptr, ptr %7, align 8
  %9 = tail call noundef float %8(ptr noundef nonnull align 8 dereferenceable(20) %4, ptr noundef nonnull align 8 dereferenceable(40) %1)
  tail call void @_ZN13MLFloatSlider8setValueEf(ptr noundef nonnull align 8 dereferenceable(48) %0, float noundef %9)
  %10 = load ptr, ptr %3, align 8
  %11 = getelementptr inbounds i8, ptr %10, i64 16
  store float %9, ptr %11, align 8
  br label %12

12:                                               ; preds = %5, %2
  ret void
}